Certificate:
    Data:
        Version: 3 (0x2)
        Serial Number: 10 (0xa)
    Signature Algorithm: sha256WithRSAEncryption
        Issuer: C=US, ST=Test, L=Test, O=Test, CN=Test Parent
        Validity
            Not Before: Oct  3 18:02:45 2017 GMT
            Not After : Oct  1 18:02:45 2027 GMT
        Subject: C=US, ST=Test, L=Test, O=Test, CN=Test Child
        Subject Public Key Info:
            Public Key Algorithm: rsaEncryption
                Public-Key: (2048 bit)
                Modulus:
                    00:b2:45:31:e4:99:12:1f:0f:c3:5b:78:98:39:a5:
                    d0:da:c6:9f:38:23:09:df:fd:35:b6:95:b6:37:5d:
                    b6:49:f2:a5:f1:62:75:62:41:09:9d:36:e5:53:c8:
                    82:1a:5c:9d:2a:fd:03:9c:a9:00:6d:28:b3:29:bb:
                    cf:f3:eb:0f:5c:c9:81:8d:69:e1:04:f7:9a:1c:09:
                    33:ab:54:c1:ac:0c:d7:d1:11:79:6c:6f:c0:2b:54:
                    9e:c2:86:85:05:a3:e4:70:06:84:42:eb:8b:c0:0e:
                    3a:73:16:cd:13:79:a5:43:e6:89:8b:c3:7f:6b:04:
                    cd:7f:34:6b:4a:47:65:c3:4a:6a:d3:ea:8e:57:34:
                    5d:39:18:fc:d0:8e:e4:f6:ff:74:86:a0:98:06:67:
                    40:0c:8f:a6:5e:46:9d:ed:b9:25:99:7c:4c:62:b8:
                    19:ae:12:1e:33:0b:d3:43:b9:3c:bc:5a:f3:6b:c6:
                    a9:1c:c1:ce:99:1f:64:b7:a3:8d:ed:c8:3e:95:75:
                    19:e5:ce:51:f1:11:f1:c0:58:76:87:ee:42:12:a4:
                    ff:8e:c6:e8:42:3d:b4:df:c7:be:a6:c7:ea:6c:88:
                    04:4b:d3:f3:9b:7f:d4:db:87:21:55:36:2e:3c:1c:
                    c9:21:4a:2f:7f:51:f0:08:d7:21:ea:75:c4:e2:78:
                    91:9d
                Exponent: 65537 (0x10001)
        X509v3 extensions:
            X509v3 Subject Key Identifier: 
                C2:03:EA:FC:7E:70:7F:34:21:C1:BE:33:0E:8A:E0:7E:C6:A2:21:1B
            X509v3 Authority Key Identifier: 
                keyid:7A:BE:7D:09:5A:5F:5C:DE:CC:82:1A:3B:FE:A8:ED:CA:BA:16:58:49

            X509v3 Basic Constraints: 
                CA:TRUE, pathlen:0
            X509v3 Key Usage: 
                Certificate Sign, CRL Sign
            X509v3 Subject Alternative Name: 
                DNS:example.com, DNS:www.example.com, DNS:mail.example.com, DNS:ftp.example.com
            Netscape Comment: 
                OpenSSL Generated Certificate
    Signature Algorithm: sha256WithRSAEncryption
         10:46:2e:1e:37:b8:10:4a:8c:e3:76:7c:05:57:76:34:05:0b:
         e2:ed:b3:1b:28:20:2b:56:9b:2d:59:70:e5:4e:5e:ce:a8:11:
         d5:c1:9b:e7:c8:0e:61:2b:63:ae:d2:1b:ec:cf:75:31:d0:4f:
         35:86:c2:51:22:64:c3:07:a7:c4:6b:13:57:cc:e5:d9:86:8d:
         b4:73:45:c5:ca:48:b7:b6:02:1e:c7:de:71:c6:5f:2a:64:7d:
         b5:5b:16:9a:27:7d:5f:3c:8a:5e:95:38:7f:c0:7e:d4:39:3f:
         36:60:7d:7d:8e:9f:72:06:d4:69:7a:e5:45:3f:e2:c9:eb:7f:
         5f:74:1a:6b:6c:b8:a1:08:05:d9:25:ee:d4:97:db:5a:72:1f:
         4a:06:a9:86:76:41:58:34:0b:5a:39:be:65:ec:26:b1:13:41:
         6b:86:58:fa:2e:cd:ab:06:d2:59:0e:bb:e4:44:2c:de:21:d1:
         8c:9c:93:a5:d5:ae:fc:af:37:b0:91:1f:46:61:28:b9:a5:c8:
         b4:3c:28:33:b1:d9:ca:49:53:fe:14:80:82:de:06:c1:ab:21:
         e7:44:76:04:d8:85:b4:60:72:30:7a:28:b7:6f:4d:9e:52:70:
         21:df:4e:71:aa:01:d6:ba:fa:4b:4a:61:75:9c:57:67:a6:b2:
         e7:ab:24:6c
-----BEGIN CERTIFICATE-----
MIID9jCCAt6gAwIBAgIBCjANBgkqhkiG9w0BAQsFADBQMQswCQYDVQQGEwJVUzEN
MAsGA1UECAwEVGVzdDENMAsGA1UEBwwEVGVzdDENMAsGA1UECgwEVGVzdDEUMBIG
A1UEAwwLVGVzdCBQYXJlbnQwHhcNMTcxMDAzMTgwMjQ1WhcNMjcxMDAxMTgwMjQ1
WjBPMQswCQYDVQQGEwJVUzENMAsGA1UECAwEVGVzdDENMAsGA1UEBwwEVGVzdDEN
MAsGA1UECgwEVGVzdDETMBEGA1UEAwwKVGVzdCBDaGlsZDCCASIwDQYJKoZIhvcN
AQEBBQADggEPADCCAQoCggEBALJFMeSZEh8Pw1t4mDml0NrGnzgjCd/9NbaVtjdd
tknypfFidWJBCZ025VPIghpcnSr9A5ypAG0osym7z/PrD1zJgY1p4QT3mhwJM6tU
wawM19EReWxvwCtUnsKGhQWj5HAGhELri8AOOnMWzRN5pUPmiYvDf2sEzX80a0pH
ZcNKatPqjlc0XTkY/NCO5Pb/dIagmAZnQAyPpl5Gne25JZl8TGK4Ga4SHjML00O5
PLxa82vGqRzBzpkfZLejje3IPpV1GeXOUfER8cBYdofuQhKk/47G6EI9tN/HvqbH
6myIBEvT85t/1NuHIVU2LjwcySFKL39R8AjXIep1xOJ4kZ0CAwEAAaOB2zCB2DAd
BgNVHQ4EFgQUwgPq/H5wfzQhwb4zDorgfsaiIRswHwYDVR0jBBgwFoAUer59CVpf
XN7Mgho7/qjtyroWWEkwDwYDVR0TBAgwBgEB/wIBADALBgNVHQ8EBAMCAQYwSgYD
VR0RBEMwQYILZXhhbXBsZS5jb22CD3d3dy5leGFtcGxlLmNvbYIQbWFpbC5leGFt
cGxlLmNvbYIPZnRwLmV4YW1wbGUuY29tMCwGCWCGSAGG+EIBDQQfFh1PcGVuU1NM
IEdlbmVyYXRlZCBDZXJ0aWZpY2F0ZTANBgkqhkiG9w0BAQsFAAOCAQEAEEYuHje4
EEqM43Z8BVd2NAUL4u2zGyggK1abLVlw5U5ezqgR1cGb58gOYStjrtIb7M91MdBP
NYbCUSJkwwenxGsTV8zl2YaNtHNFxcpIt7YCHsfeccZfKmR9tVsWmid9XzyKXpU4
f8B+1Dk/NmB9fY6fcgbUaXrlRT/iyet/X3Qaa2y4oQgF2SXu1JfbWnIfSgaphnZB
WDQLWjm+ZewmsRNBa4ZY+i7NqwbSWQ675EQs3iHRjJyTpdWu/K83sJEfRmEouaXI
tDwoM7HZyklT/hSAgt4Gwash50R2BNiFtGByMHoot29NnlJwId9OcaoB1rr6S0ph
dZxXZ6ay56skbA==
-----END CERTIFICATE-----
