Certificate:
    Data:
        Version: 3 (0x2)
        Serial Number: 11 (0xb)
    Signature Algorithm: sha256WithRSAEncryption
        Issuer: C=US, ST=Test, L=Test, O=Test, CN=Test Child
        Validity
            Not Before: Oct  3 18:09:07 2017 GMT
            Not After : Oct  1 18:09:07 2027 GMT
        Subject: C=US, ST=Test, L=Test, O=Test, CN=Test Grandchild
        Subject Public Key Info:
            Public Key Algorithm: rsaEncryption
                Public-Key: (2048 bit)
                Modulus:
                    00:bd:3c:4b:2a:e8:03:5d:07:ae:94:f4:19:ed:00:
                    21:20:dd:1c:54:f1:dc:44:d8:bf:66:b4:bf:ce:21:
                    7b:bf:b4:15:7b:b3:4f:0e:d5:ef:fa:f1:31:ab:2a:
                    22:78:72:20:7d:ce:58:c3:45:0d:2f:5c:23:7c:87:
                    07:bf:ee:8c:8c:9f:ae:31:70:19:61:dc:92:b5:8f:
                    fb:36:16:1c:08:d4:2c:c0:0c:86:e0:ee:a8:31:20:
                    21:16:41:b2:78:bc:88:a8:ef:4c:3a:34:4f:a0:08:
                    25:e7:35:e8:bc:66:d3:c3:b5:2a:05:34:91:b0:d0:
                    ae:02:f2:a1:58:22:af:43:42:d8:40:82:0c:e3:26:
                    72:22:06:d2:b1:13:87:04:83:70:f6:b0:99:39:bf:
                    79:26:f6:e2:ff:24:c3:72:48:9f:68:0a:c1:c9:aa:
                    b1:a8:b4:f7:cf:44:38:4a:77:bf:56:20:fa:7e:08:
                    75:26:04:fb:5e:d5:4f:ff:b8:45:1f:80:12:fb:7e:
                    61:7e:52:f0:dc:71:ee:72:91:27:fa:60:93:96:e5:
                    78:1d:d9:fd:5a:b8:00:b9:97:46:12:b5:2a:93:0e:
                    c3:1b:30:6e:b2:67:5d:c5:ca:40:3f:36:0c:7c:4f:
                    d4:48:e0:1f:32:a9:28:0c:37:35:7c:5d:42:f5:cb:
                    54:b9
                Exponent: 65537 (0x10001)
        X509v3 extensions:
            X509v3 Subject Key Identifier: 
                4F:6C:A8:1F:80:F0:A6:EE:41:85:B9:A2:3F:EC:3A:B2:93:B4:0E:86
            X509v3 Authority Key Identifier: 
                keyid:C2:03:EA:FC:7E:70:7F:34:21:C1:BE:33:0E:8A:E0:7E:C6:A2:21:1B

            X509v3 Basic Constraints: 
                CA:FALSE
            X509v3 Key Usage: 
                Digital Signature, Key Encipherment
            X509v3 Subject Alternative Name: 
                DNS:example.com, DNS:www.example.com, DNS:mail.example.com, DNS:ftp.example.com
            Netscape Comment: 
                OpenSSL Generated Certificate
    Signature Algorithm: sha256WithRSAEncryption
         ae:a7:62:9e:f6:b7:e3:02:84:0f:fe:c6:7c:c1:0b:74:8e:95:
         c3:2e:e9:5f:c0:8b:fc:79:45:53:5c:34:9d:b0:de:e6:cf:ed:
         52:4c:3f:6a:3f:e9:8d:a3:58:d4:ae:4d:31:30:57:d5:31:f9:
         a2:ed:82:e2:ae:1a:65:a5:ab:de:64:35:c9:0b:d1:86:b0:83:
         57:8a:e4:ca:21:d5:9a:79:5b:44:42:ff:52:9a:51:b6:f4:6e:
         f1:da:dd:3b:ca:12:cb:4c:e5:9f:a5:12:4f:13:99:85:79:c8:
         00:3b:2c:25:7f:02:07:a3:4e:59:0b:4d:8e:f8:43:08:a9:91:
         30:0a:17:1c:ff:91:c0:16:d5:c0:1e:ec:a5:24:c8:cc:f0:2c:
         0e:30:b9:bb:34:11:83:e7:4d:02:e4:2d:2a:90:98:eb:d8:ae:
         7b:2f:19:31:db:63:fc:0c:0b:47:f5:8f:7b:cf:99:0b:30:91:
         a6:44:19:51:7f:15:4f:ab:8c:08:e2:bd:91:42:e4:e7:88:8e:
         c0:ea:fd:09:ac:96:c6:14:ef:0e:7d:75:6a:05:b0:b5:4d:43:
         60:62:31:85:61:cb:c3:0f:81:24:d6:de:10:42:54:ff:c0:63:
         95:40:3d:89:52:f9:00:2a:a5:74:1c:b1:42:be:a1:2f:de:90:
         cb:d5:a7:3d
-----BEGIN CERTIFICATE-----
MIID9DCCAtygAwIBAgIBCzANBgkqhkiG9w0BAQsFADBPMQswCQYDVQQGEwJVUzEN
MAsGA1UECAwEVGVzdDENMAsGA1UEBwwEVGVzdDENMAsGA1UECgwEVGVzdDETMBEG
A1UEAwwKVGVzdCBDaGlsZDAeFw0xNzEwMDMxODA5MDdaFw0yNzEwMDExODA5MDda
MFQxCzAJBgNVBAYTAlVTMQ0wCwYDVQQIDARUZXN0MQ0wCwYDVQQHDARUZXN0MQ0w
CwYDVQQKDARUZXN0MRgwFgYDVQQDDA9UZXN0IEdyYW5kY2hpbGQwggEiMA0GCSqG
SIb3DQEBAQUAA4IBDwAwggEKAoIBAQC9PEsq6ANdB66U9BntACEg3RxU8dxE2L9m
tL/OIXu/tBV7s08O1e/68TGrKiJ4ciB9zljDRQ0vXCN8hwe/7oyMn64xcBlh3JK1
j/s2FhwI1CzADIbg7qgxICEWQbJ4vIio70w6NE+gCCXnNei8ZtPDtSoFNJGw0K4C
8qFYIq9DQthAggzjJnIiBtKxE4cEg3D2sJk5v3km9uL/JMNySJ9oCsHJqrGotPfP
RDhKd79WIPp+CHUmBPte1U//uEUfgBL7fmF+UvDcce5ykSf6YJOW5Xgd2f1auAC5
l0YStSqTDsMbMG6yZ13FykA/Ngx8T9RI4B8yqSgMNzV8XUL1y1S5AgMBAAGjgdUw
gdIwHQYDVR0OBBYEFE9sqB+A8KbuQYW5oj/sOrKTtA6GMB8GA1UdIwQYMBaAFMID
6vx+cH80IcG+Mw6K4H7GoiEbMAkGA1UdEwQCMAAwCwYDVR0PBAQDAgWgMEoGA1Ud
EQRDMEGCC2V4YW1wbGUuY29tgg93d3cuZXhhbXBsZS5jb22CEG1haWwuZXhhbXBs
ZS5jb22CD2Z0cC5leGFtcGxlLmNvbTAsBglghkgBhvhCAQ0EHxYdT3BlblNTTCBH
ZW5lcmF0ZWQgQ2VydGlmaWNhdGUwDQYJKoZIhvcNAQELBQADggEBAK6nYp72t+MC
hA/+xnzBC3SOlcMu6V/Ai/x5RVNcNJ2w3ubP7VJMP2o/6Y2jWNSuTTEwV9Ux+aLt
guKuGmWlq95kNckL0Yawg1eK5Moh1Zp5W0RC/1KaUbb0bvHa3TvKEstM5Z+lEk8T
mYV5yAA7LCV/AgejTlkLTY74QwipkTAKFxz/kcAW1cAe7KUkyMzwLA4wubs0EYPn
TQLkLSqQmOvYrnsvGTHbY/wMC0f1j3vPmQswkaZEGVF/FU+rjAjivZFC5OeIjsDq
/QmslsYU7w59dWoFsLVNQ2BiMYVhy8MPgSTW3hBCVP/AY5VAPYlS+QAqpXQcsUK+
oS/ekMvVpz0=
-----END CERTIFICATE-----
