Certificate:
    Data:
        Version: 3 (0x2)
        Serial Number: 9 (0x9)
    Signature Algorithm: sha256WithRSAEncryption
        Issuer: C=US, ST=Test, L=Test, O=Test, OU=Test, CN=Test Grandparent/emailAddress=gp@example.com
        Validity
            Not Before: Oct  3 17:58:30 2017 GMT
            Not After : Oct  1 17:58:30 2027 GMT
        Subject: C=US, ST=Test, L=Test, O=Test, CN=Test Parent
        Subject Public Key Info:
            Public Key Algorithm: rsaEncryption
                Public-Key: (2048 bit)
                Modulus:
                    00:9f:9d:95:c4:a3:2f:37:52:e4:7c:cf:0b:0e:7f:
                    14:69:63:1e:7a:cc:a8:19:a7:88:59:c8:17:f2:21:
                    13:1b:45:21:fa:cc:93:40:71:cf:77:52:5a:1e:2e:
                    5a:91:16:a9:67:3a:a3:6a:ea:cb:a2:bf:24:9b:8c:
                    08:96:33:19:46:f9:7a:04:f9:c2:ee:87:f3:c3:23:
                    73:37:59:0e:c0:71:f4:cd:0b:ad:23:63:51:0a:4f:
                    dc:d2:9b:ab:ab:8a:99:07:d4:c8:c8:70:fd:18:73:
                    25:0a:48:82:32:0d:64:46:b1:63:84:24:03:0b:3c:
                    b8:17:92:78:6c:2b:4d:21:1b:46:3e:c1:cf:98:0b:
                    a8:43:91:c0:39:48:f5:4e:71:77:c5:43:0e:68:8f:
                    01:c6:fb:59:77:d5:b3:f3:fe:95:27:ea:6e:ae:fc:
                    8e:59:ad:06:97:0c:f7:a6:e7:61:df:23:91:26:d0:
                    bc:80:c6:2b:02:9b:fa:0f:e6:32:69:5a:90:29:c9:
                    9c:34:eb:50:ed:1d:e3:eb:0f:67:88:e3:ec:2b:1a:
                    ab:41:c3:fa:d6:e8:aa:e3:7b:6a:16:3d:d8:da:6b:
                    af:92:81:32:98:2f:f7:c0:bd:c4:25:bb:02:60:43:
                    d5:e6:0c:29:7f:31:5d:09:4b:6a:a9:31:9b:92:24:
                    09:8f
                Exponent: 65537 (0x10001)
        X509v3 extensions:
            X509v3 Subject Key Identifier: 
                7A:BE:7D:09:5A:5F:5C:DE:CC:82:1A:3B:FE:A8:ED:CA:BA:16:58:49
            X509v3 Authority Key Identifier: 
                keyid:A7:EB:A1:B4:4D:2A:62:D5:38:90:ED:44:FA:77:7F:F9:BA:EA:99:04

            X509v3 Basic Constraints: 
                CA:TRUE, pathlen:0
            X509v3 Key Usage: 
                Certificate Sign, CRL Sign
            X509v3 Subject Alternative Name: 
                DNS:example.com, DNS:www.example.com, DNS:mail.example.com, DNS:ftp.example.com
            Netscape Comment: 
                OpenSSL Generated Certificate
    Signature Algorithm: sha256WithRSAEncryption
         81:55:0d:1d:73:54:1d:72:73:72:dc:cf:ed:c1:47:c8:38:2a:
         78:33:5e:55:6f:02:cc:c0:6a:6f:7e:c9:fa:4c:3d:a0:5b:25:
         37:5e:87:69:7f:d8:66:73:4f:58:7d:c7:3e:6d:be:2a:85:43:
         6a:cb:ff:68:59:1d:72:d2:68:ad:e9:5b:2f:8d:f6:95:31:ba:
         1d:de:16:45:d9:12:51:85:12:bb:fb:89:fc:3a:7c:f5:e4:75:
         64:b4:7d:ff:9f:f6:15:fa:1e:cb:18:4a:9d:e8:d8:5e:5a:d7:
         dd:78:c7:df:3d:21:2d:99:ef:b4:2c:78:2f:fb:fa:a0:7e:f3:
         cb:3b:05:5a:65:7d:9b:0f:9b:a3:9b:a9:ad:25:f8:32:cb:08:
         fd:c2:68:d3:92:15:09:59:5f:8b:c4:84:01:5f:75:7b:f0:55:
         5f:20:39:f1:26:65:3d:d8:a2:19:de:fb:79:a0:27:2a:24:ae:
         95:02:84:61:72:7a:47:37:4e:9f:af:20:5b:21:ec:c4:bf:ee:
         80:5b:35:4e:ee:20:46:e6:cb:a6:e2:2f:c6:3e:5a:fa:f9:97:
         c3:97:09:1d:ce:08:a3:e9:09:cb:c3:59:3f:98:f3:b6:bf:00:
         8b:a7:40:de:0a:1c:09:88:f7:74:fa:b1:1c:05:44:ff:ba:73:
         84:3b:93:8d:a8:51:d0:d8:59:e6:cd:a8:79:d3:db:0a:1d:99:
         3f:7c:a0:f9:d5:9e:dd:13:58:ee:ef:0d:3d:e2:4a:8b:85:18:
         0c:86:f8:97:4d:18:54:c0:52:b8:10:38:1a:b8:8a:06:71:a5:
         e7:78:11:00:5b:9f:19:92:34:28:0f:19:3f:b0:57:ea:11:69:
         29:ca:ed:05:36:08:f6:8d:ec:5d:34:79:92:8e:4c:e0:1c:a4:
         ad:1a:31:90:b7:16:60:da:e3:8f:ee:ea:66:df:13:e8:46:8d:
         a3:e2:3b:0a:f5:87:14:3d:4b:14:ea:da:89:c7:ae:e0:60:e3:
         a0:4c:04:2f:a1:0f:a9:84:5a:5a:f7:3d:4f:7b:d4:7c:e1:cd:
         ef:8b:28:45:19:ea:a9:4c:9e:59:f8:41:43:10:77:89:09:3e:
         30:d0:e9:58:96:45:07:50:0e:4d:cc:6a:53:9e:64:c4:8a:e0:
         51:96:3a:c6:8a:e2:94:af:9c:26:9a:fe:e3:7a:cd:cc:55:60:
         f0:dc:bf:f3:0d:e8:69:e4:cf:49:e1:f4:d2:87:91:31:cf:42:
         f7:2c:a7:f7:7b:88:90:e4:17:96:f6:34:d2:bf:a1:66:3c:03:
         db:aa:07:fa:a6:c3:4b:d3:29:d1:d1:40:6f:a7:88:a5:7f:bd:
         5f:f5:00:94:db:53:5d:24
-----BEGIN CERTIFICATE-----
MIIFKzCCAxOgAwIBAgIBCTANBgkqhkiG9w0BAQsFADCBgzELMAkGA1UEBhMCVVMx
DTALBgNVBAgMBFRlc3QxDTALBgNVBAcMBFRlc3QxDTALBgNVBAoMBFRlc3QxDTAL
BgNVBAsMBFRlc3QxGTAXBgNVBAMMEFRlc3QgR3JhbmRwYXJlbnQxHTAbBgkqhkiG
9w0BCQEWDmdwQGV4YW1wbGUuY29tMB4XDTE3MTAwMzE3NTgzMFoXDTI3MTAwMTE3
NTgzMFowUDELMAkGA1UEBhMCVVMxDTALBgNVBAgMBFRlc3QxDTALBgNVBAcMBFRl
c3QxDTALBgNVBAoMBFRlc3QxFDASBgNVBAMMC1Rlc3QgUGFyZW50MIIBIjANBgkq
hkiG9w0BAQEFAAOCAQ8AMIIBCgKCAQEAn52VxKMvN1LkfM8LDn8UaWMeesyoGaeI
WcgX8iETG0Uh+syTQHHPd1JaHi5akRapZzqjaurLor8km4wIljMZRvl6BPnC7ofz
wyNzN1kOwHH0zQutI2NRCk/c0purq4qZB9TIyHD9GHMlCkiCMg1kRrFjhCQDCzy4
F5J4bCtNIRtGPsHPmAuoQ5HAOUj1TnF3xUMOaI8BxvtZd9Wz8/6VJ+purvyOWa0G
lwz3pudh3yORJtC8gMYrApv6D+YyaVqQKcmcNOtQ7R3j6w9niOPsKxqrQcP61uiq
43tqFj3Y2muvkoEymC/3wL3EJbsCYEPV5gwpfzFdCUtqqTGbkiQJjwIDAQABo4Hb
MIHYMB0GA1UdDgQWBBR6vn0JWl9c3syCGjv+qO3KuhZYSTAfBgNVHSMEGDAWgBSn
66G0TSpi1TiQ7UT6d3/5uuqZBDAPBgNVHRMECDAGAQH/AgEAMAsGA1UdDwQEAwIB
BjBKBgNVHREEQzBBggtleGFtcGxlLmNvbYIPd3d3LmV4YW1wbGUuY29tghBtYWls
LmV4YW1wbGUuY29tgg9mdHAuZXhhbXBsZS5jb20wLAYJYIZIAYb4QgENBB8WHU9w
ZW5TU0wgR2VuZXJhdGVkIENlcnRpZmljYXRlMA0GCSqGSIb3DQEBCwUAA4ICAQCB
VQ0dc1QdcnNy3M/twUfIOCp4M15VbwLMwGpvfsn6TD2gWyU3Xodpf9hmc09Yfcc+
bb4qhUNqy/9oWR1y0mit6VsvjfaVMbod3hZF2RJRhRK7+4n8Onz15HVktH3/n/YV
+h7LGEqd6NheWtfdeMffPSEtme+0LHgv+/qgfvPLOwVaZX2bD5ujm6mtJfgyywj9
wmjTkhUJWV+LxIQBX3V78FVfIDnxJmU92KIZ3vt5oCcqJK6VAoRhcnpHN06fryBb
IezEv+6AWzVO7iBG5sum4i/GPlr6+ZfDlwkdzgij6QnLw1k/mPO2vwCLp0DeChwJ
iPd0+rEcBUT/unOEO5ONqFHQ2Fnmzah509sKHZk/fKD51Z7dE1ju7w094kqLhRgM
hviXTRhUwFK4EDgauIoGcaXneBEAW58ZkjQoDxk/sFfqEWkpyu0FNgj2jexdNHmS
jkzgHKStGjGQtxZg2uOP7upm3xPoRo2j4jsK9YcUPUsU6tqJx67gYOOgTAQvoQ+p
hFpa9z1Pe9R84c3viyhFGeqpTJ5Z+EFDEHeJCT4w0OlYlkUHUA5NzGpTnmTEiuBR
ljrGiuKUr5wmmv7jes3MVWDw3L/zDehp5M9J4fTSh5Exz0L3LKf3e4iQ5BeW9jTS
v6FmPAPbqgf6psNL0ynR0UBvp4ilf71f9QCU21NdJA==
-----END CERTIFICATE-----
